; Function Attrs: mustprogress nounwind uwtable
define hidden void @_ZN4llvm10WinCFGuardD2Ev(ptr noundef nonnull align 8 dereferenceable(40) initializes((0, 8)) %0) unnamed_addr #1 align 2 {
  store ptr getelementptr inbounds nuw inrange(-16, 88) (i8, ptr @_ZTVN4llvm10WinCFGuardE, i64 16), ptr %0, align 8
  %2 = getelementptr inbounds nuw i8, ptr %0, i64 16
  %3 = load ptr, ptr %2, align 8
  %.not.i.i.i = icmp eq ptr %3, null
  br i1 %.not.i.i.i, label %_ZNSt6vectorIPKN4llvm8MCSymbolESaIS3_EED2Ev.exit, label %4

4:                                                ; preds = %1
  %5 = getelementptr inbounds nuw i8, ptr %0, i64 32
  %6 = load ptr, ptr %5, align 8
  %7 = ptrtoint ptr %6 to i64
  %8 = ptrtoint ptr %3 to i64
  %9 = sub i64 %7, %8
  tail call void @_ZdlPvm(ptr noundef nonnull %3, i64 noundef %9) #14
  br label %_ZNSt6vectorIPKN4llvm8MCSymbolESaIS3_EED2Ev.exit

_ZNSt6vectorIPKN4llvm8MCSymbolESaIS3_EED2Ev.exit: ; preds = %1, %4
  tail call void @_ZN4llvm17AsmPrinterHandlerD2Ev(ptr noundef nonnull align 8 dereferenceable(8) %0) #15
  ret void
}